(lp0
(iRunes
SingleAttack
p1
(dp2
S'maxspeed'
p3
F1.0
sS'col'
p4
S'Red'
p5
sS'cost'
p6
I25
sS'imprints'
p7
(lp8
sS'tempspeed'
p9
F1.0
sS'damageBonus'
p10
F1.0
sS'tower'
p11
NsS'types'
p12
(lp13
S'Attack'
p14
asba(iRunes
SingleAttack
p15
(dp16
g3
F1.0
sg4
g5
sg6
I25
sg7
(lp17
sg9
F1.0
sg10
F1.0
sg11
Nsg12
(lp18
g14
asba(iRunes
SingleAttack
p19
(dp20
g3
F1.0
sg4
S'Red'
p21
sg6
I25
sg7
(lp22
sg9
F1.0
sg10
F1.0
sg11
Nsg12
(lp23
S'Attack'
p24
asba(iRunes
SingleAttack
p25
(dp26
g3
F1.0
sg4
S'Red'
p27
sg6
I25
sg7
(lp28
sg11
Nsg10
F1.0
sg9
F-2.06600022315979
sg12
(lp29
S'Attack'
p30
asba(iRunes
SingleAttack
p31
(dp32
g3
F1.0
sg4
S'Red'
p33
sg6
I25
sg7
(lp34
sg9
F1.0
sg10
F1.0
sg11
Nsg12
(lp35
S'Attack'
p36
asba(iRunes
SingleAttack
p37
(dp38
g3
F1.0
sg4
S'Red'
p39
sg6
I25
sg7
(lp40
sg9
F1.0
sg10
F1.0
sg11
Nsg12
(lp41
S'Attack'
p42
asba.