(ilocalclasses
Tower
p0
(dp1
S'healthRegeneration'
p2
F1.0
sS'ac'
p3
I10
sS'image'
p4
NsS'costText'
p5
NsS'cost'
p6
I25
sS'outyet'
p7
I00
sS'upgrades'
p8
(lp9
S'StartingPoint'
p10
asS'speedIncrease'
p11
I0
sS'tempimage'
p12
NsS'runes'
p13
(dp14
S'Alpha'
p15
(iRunes
SingleAttack
p16
(dp17
S'maxspeed'
p18
F1.0
sS'col'
p19
S'Red'
p20
sg6
I25
sS'imprints'
p21
(lp22
sS'tower'
p23
NsS'damageBonus'
p24
F1.0
sS'tempspeed'
p25
F-18.85699987411499
sS'types'
p26
(lp27
S'Attack'
p28
asbsS'Beta'
p29
NssS'curXP'
p30
F8.096698570047108
sS'totLV'
p31
I0
sS'rect'
p32
cpygame
__rect_constructor
p33
(I150
I150
I30
I30
tp34
Rp35
sS'phyDamIncrease'
p36
I0
sS'phyDamBonus'
p37
I0
sS'damBonus'
p38
I0
sS'maxXP'
p39
I10
sS'damIncrease'
p40
I0
sS'hp'
p41
I10
sS'enemytarget'
p42
NsS'maxhp'
p43
I10
sS'toolBarInfo'
p44
(dp45
sS'icon'
p46
(ilocalclasses
Icon
p47
(dp48
g23
g0
sS'base'
p49
S'Tower'
p50
sS'otherimg'
p51
Nsg32
g33
(I5
I575
I20
I20
tp52
Rp53
sS'img'
p54
NsbsS'curLV'
p55
I0
sS'baserange'
p56
I2
sS'targetTimer'
p57
I0
sb.